/*
 * Intel ACPI Component Architecture
 * AML/ASL+ Disassembler version 20251212 (64-bit version)
 * Copyright (c) 2000 - 2025 Intel Corporation
 * 
 * Disassembly of _H2O.aml
 *
 * ACPI Data Table [_H2O]
 *
 * Format: [HexOffset DecimalOffset ByteLength]  FieldName : FieldValue (in hex)
 */

[000h 0000 004h]                   Signature : "_H2O"    
[004h 0004 004h]                Table Length : 0000002C
[008h 0008 001h]                    Revision : 01
[009h 0009 001h]                    Checksum : 18
[00Ah 0010 006h]                      Oem ID : "HONOR"
[010h 0016 008h]                Oem Table ID : "PTL"
[018h 0024 004h]                Oem Revision : 00000002
[01Ch 0028 004h]             Asl Compiler ID : "ACPI"
[020h 0032 004h]       Asl Compiler Revision : 00040000


**** Unknown ACPI table signature [_H2O]


Raw Table Data: Length 44 (0x2C)

    0000: 5F 48 32 4F 2C 00 00 00 01 18 48 4F 4E 4F 52 00  // _H2O,.....HONOR.
    0010: 50 54 4C 00 00 00 00 00 02 00 00 00 41 43 50 49  // PTL.........ACPI
    0020: 00 00 04 00 00 30 60 6A 00 00 00 00              // .....0`j....
