/*
 * Intel ACPI Component Architecture
 * AML/ASL+ Disassembler version 20251212 (64-bit version)
 * Copyright (c) 2000 - 2025 Intel Corporation
 * 
 * Disassembly of DTPR.aml
 *
 * ACPI Data Table [DTPR]
 *
 * Format: [HexOffset DecimalOffset ByteLength]  FieldName : FieldValue (in hex)
 */

[000h 0000 004h]                   Signature : "DTPR"    
[004h 0004 004h]                Table Length : 00000088
[008h 0008 001h]                    Revision : 01
[009h 0009 001h]                    Checksum : B4
[00Ah 0010 006h]                      Oem ID : "HONOR"
[010h 0016 008h]                Oem Table ID : "PTL"
[018h 0024 004h]                Oem Revision : 00000002
[01Ch 0028 004h]             Asl Compiler ID : "ACPI"
[020h 0032 004h]       Asl Compiler Revision : 00040000


**** Unknown ACPI table signature [DTPR]


Raw Table Data: Length 136 (0x88)

    0000: 44 54 50 52 88 00 00 00 01 B4 48 4F 4E 4F 52 00  // DTPR......HONOR.
    0010: 50 54 4C 00 00 00 00 00 02 00 00 00 41 43 50 49  // PTL.........ACPI
    0020: 00 00 04 00 00 00 00 00 01 00 00 00 00 00 00 00  // ................
    0030: 02 00 00 00 50 19 DD FE 00 00 00 00 80 19 DD FE  // ....P...........
    0040: 00 00 00 00 08 00 00 00 E0 B3 07 FB 00 00 00 00  // ................
    0050: E0 93 E6 FA 00 00 00 00 E0 A3 E9 FA 00 00 00 00  // ................
    0060: E0 83 35 FB 00 00 00 00 E0 93 35 FB 00 00 00 00  // ..5.......5.....
    0070: E0 03 E5 FA 00 00 00 00 E0 03 E9 FA 00 00 00 00  // ................
    0080: E0 63 E4 FA 00 00 00 00                          // .c......
